target datalayout = "e-m:e-p270:32:32-p271:32:32-p272:64:64-i64:64-i128:128-f80:128-n8:16:32:64-S128"
target triple = "x86_64-pc-linux-gnu"

%struct.ImageRect = type { i32, i32, i32, i32, ptr, ptr, i32, i32, i32 }
%struct.Splash = type { %struct.ImageFormat, [3 x %struct.DitherSettings], %struct.ImageFormat, [256 x i32], i32, i32, i32, i32, i32, ptr, i32, ptr, %struct.ImageRect, %struct.ImageFormat, ptr, i32, i32, i32, i32, i32, [256 x i32], i32, ptr, i32, ptr, i32, float, [2 x i32], ptr, i64, ptr, ptr, i64, %union.pthread_mutex_t, i64, ptr }
%struct.DitherSettings = type { i32, [512 x i32], [16 x [16 x i32]] }
%struct.ImageFormat = type { [4 x i32], [4 x i32], i32, i32, i32, ptr, i32, i32, ptr, i32, ptr }
%union.pthread_mutex_t = type { %struct.__pthread_mutex_s }
%struct.__pthread_mutex_s = type { i32, i32, i32, i32, i32, i16, i16, %struct.__pthread_internal_list }
%struct.__pthread_internal_list = type { ptr, ptr }
%struct.SplashImage = type { ptr, i32, ptr, i32 }
%struct.timeval = type { i64, i64 }
%struct.timezone = type { i32, i32 }
%struct.pollfd = type { i32, i16, i16 }
%union._XEvent = type { [24 x i64] }

@shapeSupported = internal global i32 0, align 4

; Function Attrs: nounwind uwtable
define hidden void @SplashUpdateShape(ptr noundef %0) #0 {
  %2 = alloca ptr, align 8
  store ptr %0, ptr %2, align 8
  %3 = load ptr, ptr %2, align 8
  %4 = getelementptr inbounds %struct.Splash, ptr %3, i32 0, i32 16
  %5 = load i32, ptr %4, align 4
  %6 = icmp slt i32 %5, 0
  br i1 %6, label %15, label %7

7:                                                ; preds = %1
  %8 = load i32, ptr @shapeSupported, align 4
  %9 = icmp ne i32 %8, 0
  br i1 %9, label %10, label %15

10:                                               ; preds = %7
  %11 = load ptr, ptr %2, align 8
  %12 = getelementptr inbounds %struct.Splash, ptr %11, i32 0, i32 5
  %13 = load i32, ptr %12, align 4
  %14 = icmp ne i32 %13, 0
  br i1 %14, label %16, label %15

15:                                               ; preds = %10, %7, %1
  br label %69

16:                                               ; preds = %10
  %17 = load ptr, ptr %2, align 8
  %18 = getelementptr inbounds %struct.Splash, ptr %17, i32 0, i32 28
  %19 = load ptr, ptr %18, align 8
  %20 = load ptr, ptr %2, align 8
  %21 = getelementptr inbounds %struct.Splash, ptr %20, i32 0, i32 29
  %22 = load i64, ptr %21, align 8
  %23 = load ptr, ptr %2, align 8
  %24 = getelementptr inbounds %struct.Splash, ptr %23, i32 0, i32 9
  %25 = load ptr, ptr %24, align 8
  %26 = load ptr, ptr %2, align 8
  %27 = getelementptr inbounds %struct.Splash, ptr %26, i32 0, i32 16
  %28 = load i32, ptr %27, align 4
  %29 = sext i32 %28 to i64
  %30 = getelementptr inbounds %struct.SplashImage, ptr %25, i64 %29
  %31 = getelementptr inbounds %struct.SplashImage, ptr %30, i32 0, i32 2
  %32 = load ptr, ptr %31, align 8
  %33 = load ptr, ptr %2, align 8
  %34 = getelementptr inbounds %struct.Splash, ptr %33, i32 0, i32 9
  %35 = load ptr, ptr %34, align 8
  %36 = load ptr, ptr %2, align 8
  %37 = getelementptr inbounds %struct.Splash, ptr %36, i32 0, i32 16
  %38 = load i32, ptr %37, align 4
  %39 = sext i32 %38 to i64
  %40 = getelementptr inbounds %struct.SplashImage, ptr %35, i64 %39
  %41 = getelementptr inbounds %struct.SplashImage, ptr %40, i32 0, i32 3
  %42 = load i32, ptr %41, align 8
  call void @XShapeCombineRectangles(ptr noundef %19, i64 noundef %22, i32 noundef 1, i32 noundef 0, i32 noundef 0, ptr noundef %32, i32 noundef %42, i32 noundef 0, i32 noundef 3)
  %43 = load ptr, ptr %2, align 8
  %44 = getelementptr inbounds %struct.Splash, ptr %43, i32 0, i32 28
  %45 = load ptr, ptr %44, align 8
  %46 = load ptr, ptr %2, align 8
  %47 = getelementptr inbounds %struct.Splash, ptr %46, i32 0, i32 29
  %48 = load i64, ptr %47, align 8
  %49 = load ptr, ptr %2, align 8
  %50 = getelementptr inbounds %struct.Splash, ptr %49, i32 0, i32 9
  %51 = load ptr, ptr %50, align 8
  %52 = load ptr, ptr %2, align 8
  %53 = getelementptr inbounds %struct.Splash, ptr %52, i32 0, i32 16
  %54 = load i32, ptr %53, align 4
  %55 = sext i32 %54 to i64
  %56 = getelementptr inbounds %struct.SplashImage, ptr %51, i64 %55
  %57 = getelementptr inbounds %struct.SplashImage, ptr %56, i32 0, i32 2
  %58 = load ptr, ptr %57, align 8
  %59 = load ptr, ptr %2, align 8
  %60 = getelementptr inbounds %struct.Splash, ptr %59, i32 0, i32 9
  %61 = load ptr, ptr %60, align 8
  %62 = load ptr, ptr %2, align 8
  %63 = getelementptr inbounds %struct.Splash, ptr %62, i32 0, i32 16
  %64 = load i32, ptr %63, align 4
  %65 = sext i32 %64 to i64
  %66 = getelementptr inbounds %struct.SplashImage, ptr %61, i64 %65
  %67 = getelementptr inbounds %struct.SplashImage, ptr %66, i32 0, i32 3
  %68 = load i32, ptr %67, align 8
  call void @XShapeCombineRectangles(ptr noundef %45, i64 noundef %48, i32 noundef 0, i32 noundef 0, i32 noundef 0, ptr noundef %58, i32 noundef %68, i32 noundef 0, i32 noundef 3)
  br label %69

69:                                               ; preds = %16, %15
  ret void
}

; Function Attrs: nounwind uwtable
define hidden void @SplashLock(ptr noundef %0) #0 {
  %2 = alloca ptr, align 8
  store ptr %0, ptr %2, align 8
  %3 = load ptr, ptr %2, align 8
  %4 = getelementptr inbounds %struct.Splash, ptr %3, i32 0, i32 33
  %5 = call i32 @pthread_mutex_lock(ptr noundef %4) #7
  ret void
}

; Function Attrs: nounwind uwtable
define hidden void @SplashUnlock(ptr noundef %0) #0 {
  %2 = alloca ptr, align 8
  store ptr %0, ptr %2, align 8
  %3 = load ptr, ptr %2, align 8
  %4 = getelementptr inbounds %struct.Splash, ptr %3, i32 0, i32 33
  %5 = call i32 @pthread_mutex_unlock(ptr noundef %4) #7
  ret void
}

; Function Attrs: nounwind uwtable
define hidden i32 @SplashTime() #0 {
  %1 = alloca %struct.timeval, align 8
  %2 = alloca %struct.timezone, align 4
  %3 = alloca i64, align 8
  %4 = call i32 @gettimeofday(ptr noundef %1, ptr noundef %2) #7
  %5 = getelementptr inbounds %struct.timeval, ptr %1, i32 0, i32 0
  %6 = load i64, ptr %5, align 8
  %7 = mul i64 %6, 1000
  %8 = getelementptr inbounds %struct.timeval, ptr %1, i32 0, i32 1
  %9 = load i64, ptr %8, align 8
  %10 = udiv i64 %9, 1000
  %11 = add i64 %7, %10
  store i64 %11, ptr %3, align 8
  %12 = load i64, ptr %3, align 8
  %13 = trunc i64 %12 to i32
  ret i32 %13
}

; Function Attrs: nounwind uwtable
define hidden void @SplashEventLoop(ptr noundef %0) #0 {
  %2 = alloca ptr, align 8
  %3 = alloca i32, align 4
  %4 = alloca [2 x %struct.pollfd], align 16
  %5 = alloca i32, align 4
  %6 = alloca i32, align 4
  %7 = alloca i32, align 4
  %8 = alloca i32, align 4
  %9 = alloca i8, align 1
  %10 = alloca %union._XEvent, align 8
  store ptr %0, ptr %2, align 8
  %11 = load ptr, ptr %2, align 8
  %12 = getelementptr inbounds %struct.Splash, ptr %11, i32 0, i32 28
  %13 = load ptr, ptr %12, align 8
  %14 = call i32 @XConnectionNumber(ptr noundef %13)
  store i32 %14, ptr %3, align 4
  br label %15

15:                                               ; preds = %161, %99, %1
  store i32 -1, ptr %5, align 4
  %16 = load ptr, ptr %2, align 8
  %17 = getelementptr inbounds %struct.Splash, ptr %16, i32 0, i32 27
  %18 = getelementptr inbounds [2 x i32], ptr %17, i64 0, i64 0
  %19 = load i32, ptr %18, align 8
  store i32 %19, ptr %6, align 4
  %20 = load i32, ptr %3, align 4
  %21 = getelementptr inbounds [2 x %struct.pollfd], ptr %4, i64 0, i64 0
  %22 = getelementptr inbounds %struct.pollfd, ptr %21, i32 0, i32 0
  store i32 %20, ptr %22, align 16
  %23 = getelementptr inbounds [2 x %struct.pollfd], ptr %4, i64 0, i64 0
  %24 = getelementptr inbounds %struct.pollfd, ptr %23, i32 0, i32 1
  store i16 3, ptr %24, align 4
  %25 = load i32, ptr %6, align 4
  %26 = getelementptr inbounds [2 x %struct.pollfd], ptr %4, i64 0, i64 1
  %27 = getelementptr inbounds %struct.pollfd, ptr %26, i32 0, i32 0
  store i32 %25, ptr %27, align 8
  %28 = getelementptr inbounds [2 x %struct.pollfd], ptr %4, i64 0, i64 1
  %29 = getelementptr inbounds %struct.pollfd, ptr %28, i32 0, i32 1
  store i16 3, ptr %29, align 4
  %30 = call ptr @__errno_location() #10
  store i32 0, ptr %30, align 4
  %31 = load ptr, ptr %2, align 8
  %32 = getelementptr inbounds %struct.Splash, ptr %31, i32 0, i32 21
  %33 = load i32, ptr %32, align 4
  %34 = icmp sgt i32 %33, 0
  br i1 %34, label %35, label %60

35:                                               ; preds = %15
  %36 = load ptr, ptr %2, align 8
  %37 = call i32 @SplashIsStillLooping(ptr noundef %36)
  %38 = icmp ne i32 %37, 0
  br i1 %38, label %39, label %60

39:                                               ; preds = %35
  %40 = load ptr, ptr %2, align 8
  %41 = getelementptr inbounds %struct.Splash, ptr %40, i32 0, i32 10
  %42 = load i32, ptr %41, align 8
  %43 = load ptr, ptr %2, align 8
  %44 = getelementptr inbounds %struct.Splash, ptr %43, i32 0, i32 9
  %45 = load ptr, ptr %44, align 8
  %46 = load ptr, ptr %2, align 8
  %47 = getelementptr inbounds %struct.Splash, ptr %46, i32 0, i32 16
  %48 = load i32, ptr %47, align 4
  %49 = sext i32 %48 to i64
  %50 = getelementptr inbounds %struct.SplashImage, ptr %45, i64 %49
  %51 = getelementptr inbounds %struct.SplashImage, ptr %50, i32 0, i32 1
  %52 = load i32, ptr %51, align 8
  %53 = add i32 %42, %52
  %54 = call i32 @SplashTime()
  %55 = sub i32 %53, %54
  store i32 %55, ptr %5, align 4
  %56 = load i32, ptr %5, align 4
  %57 = icmp slt i32 %56, 0
  br i1 %57, label %58, label %59

58:                                               ; preds = %39
  store i32 0, ptr %5, align 4
  br label %59

59:                                               ; preds = %58, %39
  br label %60

60:                                               ; preds = %59, %35, %15
  %61 = load ptr, ptr %2, align 8
  call void @SplashUnlock(ptr noundef %61)
  %62 = getelementptr inbounds [2 x %struct.pollfd], ptr %4, i64 0, i64 0
  %63 = load i32, ptr %5, align 4
  %64 = call i32 @poll(ptr noundef %62, i64 noundef 2, i32 noundef %63)
  store i32 %64, ptr %7, align 4
  %65 = load ptr, ptr %2, align 8
  call void @SplashLock(ptr noundef %65)
  %66 = load ptr, ptr %2, align 8
  %67 = getelementptr inbounds %struct.Splash, ptr %66, i32 0, i32 21
  %68 = load i32, ptr %67, align 4
  %69 = icmp sgt i32 %68, 0
  br i1 %69, label %70, label %96

70:                                               ; preds = %60
  %71 = load ptr, ptr %2, align 8
  %72 = getelementptr inbounds %struct.Splash, ptr %71, i32 0, i32 16
  %73 = load i32, ptr %72, align 4
  %74 = icmp sge i32 %73, 0
  br i1 %74, label %75, label %96

75:                                               ; preds = %70
  %76 = call i32 @SplashTime()
  %77 = load ptr, ptr %2, align 8
  %78 = getelementptr inbounds %struct.Splash, ptr %77, i32 0, i32 10
  %79 = load i32, ptr %78, align 8
  %80 = load ptr, ptr %2, align 8
  %81 = getelementptr inbounds %struct.Splash, ptr %80, i32 0, i32 9
  %82 = load ptr, ptr %81, align 8
  %83 = load ptr, ptr %2, align 8
  %84 = getelementptr inbounds %struct.Splash, ptr %83, i32 0, i32 16
  %85 = load i32, ptr %84, align 4
  %86 = sext i32 %85 to i64
  %87 = getelementptr inbounds %struct.SplashImage, ptr %82, i64 %86
  %88 = getelementptr inbounds %struct.SplashImage, ptr %87, i32 0, i32 1
  %89 = load i32, ptr %88, align 8
  %90 = add i32 %79, %89
  %91 = icmp uge i32 %76, %90
  br i1 %91, label %92, label %96

92:                                               ; preds = %75
  %93 = load ptr, ptr %2, align 8
  call void @SplashNextFrame(ptr noundef %93)
  %94 = load ptr, ptr %2, align 8
  call void @SplashUpdateShape(ptr noundef %94)
  %95 = load ptr, ptr %2, align 8
  call void @SplashRedrawWindow(ptr noundef %95)
  br label %96

96:                                               ; preds = %92, %75, %70, %60
  %97 = load i32, ptr %7, align 4
  %98 = icmp sle i32 %97, 0
  br i1 %98, label %99, label %101

99:                                               ; preds = %96
  %100 = call ptr @__errno_location() #10
  store i32 0, ptr %100, align 4
  br label %15

101:                                              ; preds = %96
  store i32 0, ptr %8, align 4
  br label %102

102:                                              ; preds = %160, %101
  %103 = load i32, ptr %8, align 4
  %104 = icmp ne i32 %103, 0
  %105 = xor i1 %104, true
  br i1 %105, label %106, label %161

106:                                              ; preds = %102
  store i32 1, ptr %8, align 4
  %107 = load i32, ptr %6, align 4
  %108 = call i64 @read(i32 noundef %107, ptr noundef %9, i64 noundef 1)
  %109 = icmp sgt i64 %108, 0
  br i1 %109, label %110, label %131

110:                                              ; preds = %106
  store i32 0, ptr %8, align 4
  %111 = load i8, ptr %9, align 1
  %112 = sext i8 %111 to i32
  switch i32 %112, label %130 [
    i32 85, label %113
    i32 82, label %121
    i32 81, label %129
  ]

113:                                              ; preds = %110
  %114 = load ptr, ptr %2, align 8
  %115 = getelementptr inbounds %struct.Splash, ptr %114, i32 0, i32 21
  %116 = load i32, ptr %115, align 4
  %117 = icmp sgt i32 %116, 0
  br i1 %117, label %118, label %120

118:                                              ; preds = %113
  %119 = load ptr, ptr %2, align 8
  call void @SplashRedrawWindow(ptr noundef %119)
  br label %120

120:                                              ; preds = %118, %113
  br label %130

121:                                              ; preds = %110
  %122 = load ptr, ptr %2, align 8
  %123 = getelementptr inbounds %struct.Splash, ptr %122, i32 0, i32 21
  %124 = load i32, ptr %123, align 4
  %125 = icmp sgt i32 %124, 0
  br i1 %125, label %126, label %128

126:                                              ; preds = %121
  %127 = load ptr, ptr %2, align 8
  call void @SplashReconfigureNow(ptr noundef %127)
  br label %128

128:                                              ; preds = %126, %121
  br label %130

129:                                              ; preds = %110
  ret void

130:                                              ; preds = %128, %120, %110
  br label %131

131:                                              ; preds = %130, %106
  %132 = load ptr, ptr %2, align 8
  %133 = getelementptr inbounds %struct.Splash, ptr %132, i32 0, i32 28
  %134 = load ptr, ptr %133, align 8
  %135 = call i32 @XPending(ptr noundef %134)
  %136 = icmp ne i32 %135, 0
  br i1 %136, label %137, label %160

137:                                              ; preds = %131
  store i32 0, ptr %8, align 4
  %138 = load ptr, ptr %2, align 8
  %139 = getelementptr inbounds %struct.Splash, ptr %138, i32 0, i32 28
  %140 = load ptr, ptr %139, align 8
  %141 = call i32 @XNextEvent(ptr noundef %140, ptr noundef %10)
  %142 = load i32, ptr %10, align 8
  switch i32 %142, label %159 [
    i32 12, label %143
  ]

143:                                              ; preds = %137
  %144 = load ptr, ptr %2, align 8
  %145 = getelementptr inbounds %struct.Splash, ptr %144, i32 0, i32 21
  %146 = load i32, ptr %145, align 4
  %147 = icmp sgt i32 %146, 0
  br i1 %147, label %148, label %158

148:                                              ; preds = %143
  br label %149

149:                                              ; preds = %155, %148
  %150 = load ptr, ptr %2, align 8
  %151 = getelementptr inbounds %struct.Splash, ptr %150, i32 0, i32 28
  %152 = load ptr, ptr %151, align 8
  %153 = call i32 @XCheckTypedEvent(ptr noundef %152, i32 noundef 12, ptr noundef %10)
  %154 = icmp ne i32 %153, 0
  br i1 %154, label %155, label %156

155:                                              ; preds = %149
  br label %149, !llvm.loop !12

156:                                              ; preds = %149
  %157 = load ptr, ptr %2, align 8
  call void @SplashRedrawWindow(ptr noundef %157)
  br label %158

158:                                              ; preds = %156, %143
  br label %159

159:                                              ; preds = %158, %137
  br label %160

160:                                              ; preds = %159, %131
  br label %102, !llvm.loop !13

161:                                              ; preds = %102
  br label %15
}