; Function Attrs: nounwind uwtable
define hidden void @SplashEventLoop(ptr noundef %0) local_unnamed_addr #0 {
  %2 = alloca %struct.timeval, align 8
  %3 = alloca %struct.timezone, align 4
  %4 = alloca %struct.timeval, align 8
  %5 = alloca %struct.timezone, align 4
  %6 = alloca [2 x %struct.pollfd], align 16
  %7 = alloca i8, align 1
  %8 = alloca %union._XEvent, align 8
  %9 = getelementptr inbounds i8, ptr %0, i64 11712
  %10 = load ptr, ptr %9, align 8
  %11 = tail call i32 @XConnectionNumber(ptr noundef %10) #16
  %12 = getelementptr inbounds i8, ptr %0, i64 11704
  %13 = getelementptr inbounds i8, ptr %6, i64 4
  %14 = getelementptr inbounds i8, ptr %6, i64 8
  %15 = getelementptr inbounds i8, ptr %6, i64 12
  %16 = tail call ptr @__errno_location() #20
  %17 = getelementptr inbounds i8, ptr %0, i64 11668
  %18 = getelementptr inbounds i8, ptr %0, i64 10464
  %19 = getelementptr inbounds i8, ptr %0, i64 10456
  %20 = getelementptr inbounds i8, ptr %0, i64 10628
  %21 = getelementptr inbounds i8, ptr %4, i64 8
  %22 = getelementptr inbounds i8, ptr %0, i64 11752
  %23 = getelementptr inbounds i8, ptr %2, i64 8
  %24 = getelementptr inbounds i8, ptr %0, i64 10436
  %25 = getelementptr inbounds i8, ptr %0, i64 11720
  br label %.backedge

.backedge:                                        ; preds = %.backedge.backedge, %1
  %26 = load i32, ptr %12, align 8
  store i32 %11, ptr %6, align 16
  store i16 3, ptr %13, align 4
  store i32 %26, ptr %14, align 8
  store i16 3, ptr %15, align 4
  store i32 0, ptr %16, align 4
  %27 = load i32, ptr %17, align 4
  %28 = icmp sgt i32 %27, 0
  br i1 %28, label %29, label %44

29:                                               ; preds = %.backedge
  %30 = call i32 @SplashIsStillLooping(ptr noundef nonnull %0) #16
  %.not = icmp eq i32 %30, 0
  br i1 %.not, label %44, label %31

31:                                               ; preds = %29
  %32 = load i32, ptr %18, align 8
  %33 = load ptr, ptr %19, align 8
  %34 = load i32, ptr %20, align 4
  %35 = sext i32 %34 to i64
  %36 = getelementptr inbounds %struct.SplashImage, ptr %33, i64 %35, i32 1
  %37 = load i32, ptr %36, align 8
  %38 = add i32 %37, %32
  call void @llvm.lifetime.start.p0(i64 16, ptr nonnull %4)
  call void @llvm.lifetime.start.p0(i64 8, ptr nonnull %5)
  %39 = call i32 @gettimeofday(ptr noundef nonnull %4, ptr noundef nonnull %5) #16
  %40 = load i64, ptr %4, align 8
  %.neg38 = mul i64 %40, 4294966296
  %41 = load i64, ptr %21, align 8
  %42 = udiv i64 %41, 1000
  %.neg39 = sub i64 %.neg38, %42
  %.neg40 = trunc i64 %.neg39 to i32
  call void @llvm.lifetime.end.p0(i64 16, ptr nonnull %4)
  call void @llvm.lifetime.end.p0(i64 8, ptr nonnull %5)
  %43 = add i32 %38, %.neg40
  %spec.store.select = call i32 @llvm.smax.i32(i32 %43, i32 0)
  br label %44

44:                                               ; preds = %31, %29, %.backedge
  %.032 = phi i32 [ %spec.store.select, %31 ], [ -1, %29 ], [ -1, %.backedge ]
  %45 = call i32 @pthread_mutex_unlock(ptr noundef nonnull %22) #16
  %46 = call i32 @poll(ptr noundef nonnull %6, i64 noundef 2, i32 noundef %.032) #16
  %47 = call i32 @pthread_mutex_lock(ptr noundef nonnull %22) #16
  %48 = load i32, ptr %17, align 4
  %49 = icmp sgt i32 %48, 0
  br i1 %49, label %50, label %95

50:                                               ; preds = %44
  %51 = load i32, ptr %20, align 4
  %52 = icmp sgt i32 %51, -1
  br i1 %52, label %53, label %95

53:                                               ; preds = %50
  call void @llvm.lifetime.start.p0(i64 16, ptr nonnull %2)
  call void @llvm.lifetime.start.p0(i64 8, ptr nonnull %3)
  %54 = call i32 @gettimeofday(ptr noundef nonnull %2, ptr noundef nonnull %3) #16
  %55 = load i64, ptr %2, align 8
  %56 = mul i64 %55, 1000
  %57 = load i64, ptr %23, align 8
  %58 = udiv i64 %57, 1000
  %59 = add i64 %58, %56
  %60 = trunc i64 %59 to i32
  call void @llvm.lifetime.end.p0(i64 16, ptr nonnull %2)
  call void @llvm.lifetime.end.p0(i64 8, ptr nonnull %3)
  %61 = load i32, ptr %18, align 8
  %62 = load ptr, ptr %19, align 8
  %63 = load i32, ptr %20, align 4
  %64 = sext i32 %63 to i64
  %65 = getelementptr inbounds %struct.SplashImage, ptr %62, i64 %64, i32 1
  %66 = load i32, ptr %65, align 8
  %67 = add i32 %66, %61
  %.not33 = icmp ugt i32 %67, %60
  br i1 %.not33, label %95, label %68

68:                                               ; preds = %53
  call void @SplashNextFrame(ptr noundef nonnull %0) #16
  %69 = load i32, ptr %20, align 4
  %70 = icmp sgt i32 %69, -1
  %71 = load i32, ptr @shapeSupported, align 4
  %72 = icmp ne i32 %71, 0
  %or.cond.i = select i1 %70, i1 %72, i1 false
  br i1 %or.cond.i, label %73, label %SplashUpdateShape.exit

73:                                               ; preds = %68
  %74 = load i32, ptr %24, align 4
  %.not.i = icmp eq i32 %74, 0
  br i1 %.not.i, label %SplashUpdateShape.exit, label %75

75:                                               ; preds = %73
  %76 = load ptr, ptr %9, align 8
  %77 = load i64, ptr %25, align 8
  %78 = load ptr, ptr %19, align 8
  %79 = zext nneg i32 %69 to i64
  %80 = getelementptr inbounds %struct.SplashImage, ptr %78, i64 %79
  %81 = getelementptr inbounds i8, ptr %80, i64 16
  %82 = load ptr, ptr %81, align 8
  %83 = getelementptr inbounds i8, ptr %80, i64 24
  %84 = load i32, ptr %83, align 8
  call void @XShapeCombineRectangles(ptr noundef %76, i64 noundef %77, i32 noundef 1, i32 noundef 0, i32 noundef 0, ptr noundef %82, i32 noundef %84, i32 noundef 0, i32 noundef 3) #16
  %85 = load ptr, ptr %9, align 8
  %86 = load i64, ptr %25, align 8
  %87 = load ptr, ptr %19, align 8
  %88 = load i32, ptr %20, align 4
  %89 = sext i32 %88 to i64
  %90 = getelementptr inbounds %struct.SplashImage, ptr %87, i64 %89
  %91 = getelementptr inbounds i8, ptr %90, i64 16
  %92 = load ptr, ptr %91, align 8
  %93 = getelementptr inbounds i8, ptr %90, i64 24
  %94 = load i32, ptr %93, align 8
  call void @XShapeCombineRectangles(ptr noundef %85, i64 noundef %86, i32 noundef 0, i32 noundef 0, i32 noundef 0, ptr noundef %92, i32 noundef %94, i32 noundef 0, i32 noundef 3) #16
  br label %SplashUpdateShape.exit

SplashUpdateShape.exit:                           ; preds = %68, %73, %75
  call void @SplashRedrawWindow(ptr noundef nonnull %0)
  br label %95

95:                                               ; preds = %SplashUpdateShape.exit, %53, %50, %44
  %96 = icmp slt i32 %46, 1
  br i1 %96, label %97, label %.preheader37

97:                                               ; preds = %95
  store i32 0, ptr %16, align 4
  br label %.backedge.backedge

.backedge.backedge:                               ; preds = %124, %97
  br label %.backedge

.preheader37:                                     ; preds = %95, %124
  %98 = call i64 @read(i32 noundef %26, ptr noundef nonnull %7, i64 noundef 1) #16
  %99 = icmp sgt i64 %98, 0
  br i1 %99, label %100, label %111

100:                                              ; preds = %.preheader37
  %101 = load i8, ptr %7, align 1
  switch i8 %101, label %111 [
    i8 85, label %102
    i8 82, label %106
    i8 81, label %110
  ]

102:                                              ; preds = %100
  %103 = load i32, ptr %17, align 4
  %104 = icmp sgt i32 %103, 0
  br i1 %104, label %105, label %111

105:                                              ; preds = %102
  call void @SplashRedrawWindow(ptr noundef nonnull %0)
  br label %111

106:                                              ; preds = %100
  %107 = load i32, ptr %17, align 4
  %108 = icmp sgt i32 %107, 0
  br i1 %108, label %109, label %111

109:                                              ; preds = %106
  call void @SplashReconfigureNow(ptr noundef nonnull %0)
  br label %111

110:                                              ; preds = %100
  ret void

111:                                              ; preds = %100, %105, %102, %109, %106, %.preheader37
  %.1 = phi i32 [ 0, %100 ], [ 0, %109 ], [ 0, %106 ], [ 0, %105 ], [ 0, %102 ], [ 1, %.preheader37 ]
  %112 = load ptr, ptr %9, align 8
  %113 = call i32 @XPending(ptr noundef %112) #16
  %.not35 = icmp eq i32 %113, 0
  br i1 %.not35, label %124, label %114

114:                                              ; preds = %111
  %115 = load ptr, ptr %9, align 8
  %116 = call i32 @XNextEvent(ptr noundef %115, ptr noundef nonnull %8) #16
  %117 = load i32, ptr %8, align 8
  %cond = icmp eq i32 %117, 12
  br i1 %cond, label %118, label %124

118:                                              ; preds = %114
  %119 = load i32, ptr %17, align 4
  %120 = icmp sgt i32 %119, 0
  br i1 %120, label %.preheader, label %124

.preheader:                                       ; preds = %118, %.preheader
  %121 = load ptr, ptr %9, align 8
  %122 = call i32 @XCheckTypedEvent(ptr noundef %121, i32 noundef 12, ptr noundef nonnull %8) #16
  %.not36 = icmp eq i32 %122, 0
  br i1 %.not36, label %123, label %.preheader, !llvm.loop !12

123:                                              ; preds = %.preheader
  call void @SplashRedrawWindow(ptr noundef nonnull %0)
  br label %124

124:                                              ; preds = %114, %123, %118, %111
  %.2 = phi i32 [ 0, %123 ], [ 0, %118 ], [ 0, %114 ], [ %.1, %111 ]
  %.not34 = icmp eq i32 %.2, 0
  br i1 %.not34, label %.preheader37, label %.backedge.backedge, !llvm.loop !13
}